EXPORTS
    _ZN2sf11CircleShapeD1Ev @1
    _ZN2sf15ContextSettingsC1Ejjjjjjb @2
    _ZN2sf4RectIiEC1Ev @3
    _ZN2sf6SpriteD1Ev @4
    _ZN2sf6StringD1Ev @5
    _ZN2sf7Vector2IfEC1Eff @6
    _ZN2sf8DrawableD2Ev @7
    _ZN2sfdvIfEENS_7Vector2IT_EERKS3_S2_ @8
    _ZN2sfmlIfEENS_7Vector2IT_EERKS3_S2_ @9
    _ZN4Game13processEventsEv @10
    _ZN4Game17handlePlayerInputEN2sf8Keyboard3KeyEb @11
    _ZN4Game3runEv @12
    _ZN4Game6renderEv @13
    _ZN4Game6updateEN2sf4TimeE @14
    _ZN4GameC1Ev @15
    _ZN4GameC2Ev @16
    _ZN4GameD1Ev @17
    _ZN9__gnu_cxx13new_allocatorIcE10deallocateEPcy @18
    _ZN9__gnu_cxx13new_allocatorIcEC2Ev @19
    _ZN9__gnu_cxx13new_allocatorIjEC2ERKS1_ @20
    _ZN9__gnu_cxx13new_allocatorIjED2Ev @21
    _ZNKSbIjSt11char_traitsIjESaIjEE13get_allocatorEv @22
    _ZNKSbIjSt11char_traitsIjESaIjEE6_M_repEv @23
    _ZNKSbIjSt11char_traitsIjESaIjEE7_M_dataEv @24
    _ZNSaIcEC1IjEERKSaIT_E @25
    _ZNSaIjEC1ERKS_ @26
    _ZNSaIjED1Ev @27
    _ZNSaIjED2Ev @28
    _ZNSbIjSt11char_traitsIjESaIjEE12_Alloc_hiderD1Ev @29
    _ZNSbIjSt11char_traitsIjESaIjEE4_Rep10_M_destroyERKS1_ @30
    _ZNSbIjSt11char_traitsIjESaIjEE4_Rep10_M_disposeERKS1_ @31
    _ZNSbIjSt11char_traitsIjESaIjEED1Ev @32
    _ZTIN2sf8DrawableE @33 DATA
    _ZTSN2sf8DrawableE @34 DATA
    _ZThn8_N2sf11CircleShapeD1Ev @35
    _ZThn8_N2sf6SpriteD1Ev @36
    main @37
